; Function Attrs: mustprogress uwtable
define dso_local void @_Z20_AddSingleKnotSplinedRKN32pxrInternal_v0_24__pxrReserved__7VtValueEPSt6vectorINS_8TsSplineESaIS4_EE(double noundef %0, ptr noundef nonnull align 8 dereferenceable(16) %1, ptr noundef %2) local_unnamed_addr #3 personality ptr @__gxx_personality_v0 {
  %4 = alloca double, align 8
  %5 = alloca %"class.pxrInternal_v0_24__pxrReserved__::TsSpline", align 8
  %6 = alloca %"class.pxrInternal_v0_24__pxrReserved__::TsKeyFrame", align 8
  %7 = alloca %"class.pxrInternal_v0_24__pxrReserved__::VtValue", align 8
  %8 = alloca %"class.pxrInternal_v0_24__pxrReserved__::VtValue", align 8
  store double %0, ptr %4, align 8
  call void @_ZN32pxrInternal_v0_24__pxrReserved__8TsSplineC1Ev(ptr noundef nonnull align 8 dereferenceable(16) %5)
  %9 = getelementptr inbounds nuw i8, ptr %7, i64 8
  store ptr null, ptr %9, align 8
  %10 = getelementptr inbounds nuw i8, ptr %8, i64 8
  store ptr null, ptr %10, align 8
  invoke void @_ZN32pxrInternal_v0_24__pxrReserved__10TsKeyFrameC1ERKdRKNS_7VtValueENS_10TsKnotTypeES5_S5_dd(ptr noundef nonnull align 8 dereferenceable(72) %6, ptr noundef nonnull align 8 dereferenceable(8) %4, ptr noundef nonnull align 8 dereferenceable(16) %1, i32 noundef 1, ptr noundef nonnull align 8 dereferenceable(16) %7, ptr noundef nonnull align 8 dereferenceable(16) %8, double noundef 0.000000e+00, double noundef 0.000000e+00)
          to label %11 unwind label %83

11:                                               ; preds = %3
  invoke void @_ZN32pxrInternal_v0_24__pxrReserved__8TsSpline11SetKeyFrameENS_10TsKeyFrameEPNS_10GfIntervalE(ptr noundef nonnull align 8 dereferenceable(16) %5, ptr noundef nonnull %6, ptr noundef null)
          to label %12 unwind label %85

12:                                               ; preds = %11
  call void @_ZN32pxrInternal_v0_24__pxrReserved__10TsKeyFrameD1Ev(ptr noundef nonnull align 8 dereferenceable(72) %6) #23
  %13 = load ptr, ptr %10, align 8
  %14 = ptrtoint ptr %13 to i64
  %.not.i.i = icmp eq ptr %13, null
  %15 = and i64 %14, 3
  %16 = icmp eq i64 %15, 3
  %or.cond.i.i = or i1 %.not.i.i, %16
  br i1 %or.cond.i.i, label %_ZN32pxrInternal_v0_24__pxrReserved__7VtValueD2Ev.exit, label %17

17:                                               ; preds = %12
  %18 = and i64 %14, -8
  %19 = inttoptr i64 %18 to ptr
  %20 = getelementptr inbounds nuw i8, ptr %19, i64 32
  %21 = load ptr, ptr %20, align 8
  invoke void %21(ptr noundef nonnull align 8 dereferenceable(16) %8)
          to label %_ZN32pxrInternal_v0_24__pxrReserved__7VtValueD2Ev.exit unwind label %22

22:                                               ; preds = %17
  %23 = landingpad { ptr, i32 }
          catch ptr null
  %24 = extractvalue { ptr, i32 } %23, 0
  call void @__clang_call_terminate(ptr %24) #25
  unreachable

_ZN32pxrInternal_v0_24__pxrReserved__7VtValueD2Ev.exit: ; preds = %12, %17
  store ptr null, ptr %10, align 8
  %25 = load ptr, ptr %9, align 8
  %26 = ptrtoint ptr %25 to i64
  %.not.i.i8 = icmp eq ptr %25, null
  %27 = and i64 %26, 3
  %28 = icmp eq i64 %27, 3
  %or.cond.i.i9 = or i1 %.not.i.i8, %28
  br i1 %or.cond.i.i9, label %_ZN32pxrInternal_v0_24__pxrReserved__7VtValueD2Ev.exit10, label %29

29:                                               ; preds = %_ZN32pxrInternal_v0_24__pxrReserved__7VtValueD2Ev.exit
  %30 = and i64 %26, -8
  %31 = inttoptr i64 %30 to ptr
  %32 = getelementptr inbounds nuw i8, ptr %31, i64 32
  %33 = load ptr, ptr %32, align 8
  invoke void %33(ptr noundef nonnull align 8 dereferenceable(16) %7)
          to label %_ZN32pxrInternal_v0_24__pxrReserved__7VtValueD2Ev.exit10 unwind label %34

34:                                               ; preds = %29
  %35 = landingpad { ptr, i32 }
          catch ptr null
  %36 = extractvalue { ptr, i32 } %35, 0
  call void @__clang_call_terminate(ptr %36) #25
  unreachable

_ZN32pxrInternal_v0_24__pxrReserved__7VtValueD2Ev.exit10: ; preds = %_ZN32pxrInternal_v0_24__pxrReserved__7VtValueD2Ev.exit, %29
  store ptr null, ptr %9, align 8
  %37 = getelementptr inbounds nuw i8, ptr %2, i64 8
  %38 = load ptr, ptr %37, align 8
  %39 = getelementptr inbounds nuw i8, ptr %2, i64 16
  %40 = load ptr, ptr %39, align 8
  %.not.i = icmp eq ptr %38, %40
  br i1 %.not.i, label %44, label %41

41:                                               ; preds = %_ZN32pxrInternal_v0_24__pxrReserved__7VtValueD2Ev.exit10
  invoke void @_ZN32pxrInternal_v0_24__pxrReserved__8TsSplineC1ERKS0_(ptr noundef nonnull align 8 dereferenceable(16) %38, ptr noundef nonnull align 8 dereferenceable(16) %5)
          to label %.noexc unwind label %81

.noexc:                                           ; preds = %41
  %42 = load ptr, ptr %37, align 8
  %43 = getelementptr inbounds nuw i8, ptr %42, i64 16
  store ptr %43, ptr %37, align 8
  br label %_ZNSt6vectorIN32pxrInternal_v0_24__pxrReserved__8TsSplineESaIS1_EE9push_backERKS1_.exit

44:                                               ; preds = %_ZN32pxrInternal_v0_24__pxrReserved__7VtValueD2Ev.exit10
  invoke void @_ZNSt6vectorIN32pxrInternal_v0_24__pxrReserved__8TsSplineESaIS1_EE17_M_realloc_insertIJRKS1_EEEvN9__gnu_cxx17__normal_iteratorIPS1_S3_EEDpOT_(ptr noundef nonnull align 8 dereferenceable(24) %2, ptr %38, ptr noundef nonnull align 8 dereferenceable(16) %5)
          to label %_ZNSt6vectorIN32pxrInternal_v0_24__pxrReserved__8TsSplineESaIS1_EE9push_backERKS1_.exit unwind label %81

_ZNSt6vectorIN32pxrInternal_v0_24__pxrReserved__8TsSplineESaIS1_EE9push_backERKS1_.exit: ; preds = %.noexc, %44
  %45 = getelementptr inbounds nuw i8, ptr %5, i64 8
  %46 = load ptr, ptr %45, align 8
  %.not.i.i.i.i = icmp eq ptr %46, null
  br i1 %.not.i.i.i.i, label %_ZN32pxrInternal_v0_24__pxrReserved__8TsSplineD2Ev.exit, label %47

47:                                               ; preds = %_ZNSt6vectorIN32pxrInternal_v0_24__pxrReserved__8TsSplineESaIS1_EE9push_backERKS1_.exit
  %48 = getelementptr inbounds nuw i8, ptr %46, i64 8
  %49 = load atomic i64, ptr %48 acquire, align 8
  %50 = icmp eq i64 %49, 4294967297
  %51 = trunc i64 %49 to i32
  br i1 %50, label %52, label %57

52:                                               ; preds = %47
  store i32 0, ptr %48, align 8
  %53 = getelementptr inbounds nuw i8, ptr %46, i64 12
  store i32 0, ptr %53, align 4
  %54 = load ptr, ptr %46, align 8
  %55 = getelementptr inbounds nuw i8, ptr %54, i64 16
  %56 = load ptr, ptr %55, align 8
  call void %56(ptr noundef nonnull align 8 dereferenceable(16) %46) #23
  br label %_ZNSt16_Sp_counted_baseILN9__gnu_cxx12_Lock_policyE2EE24_M_release_last_use_coldEv.exit.sink.split.i.i.i.i.i

57:                                               ; preds = %47
  %58 = load i8, ptr @__libc_single_threaded, align 1
  %.not.i.i.i.i.i = icmp eq i8 %58, 0
  br i1 %.not.i.i.i.i.i, label %61, label %59

59:                                               ; preds = %57
  %60 = add nsw i32 %51, -1
  store i32 %60, ptr %48, align 4
  br label %63

61:                                               ; preds = %57
  %62 = atomicrmw volatile add ptr %48, i32 -1 acq_rel, align 4
  br label %63

63:                                               ; preds = %61, %59
  %.0.i.i.i.i.i = phi i32 [ %51, %59 ], [ %62, %61 ]
  %64 = icmp eq i32 %.0.i.i.i.i.i, 1
  br i1 %64, label %65, label %_ZN32pxrInternal_v0_24__pxrReserved__8TsSplineD2Ev.exit

65:                                               ; preds = %63
  %66 = load ptr, ptr %46, align 8
  %67 = getelementptr inbounds nuw i8, ptr %66, i64 16
  %68 = load ptr, ptr %67, align 8
  call void %68(ptr noundef nonnull align 8 dereferenceable(16) %46) #23
  %69 = getelementptr inbounds nuw i8, ptr %46, i64 12
  %70 = load i8, ptr @__libc_single_threaded, align 1
  %.not.i.i.i.i.i.i.i = icmp eq i8 %70, 0
  br i1 %.not.i.i.i.i.i.i.i, label %74, label %71

71:                                               ; preds = %65
  %72 = load i32, ptr %69, align 4
  %73 = add nsw i32 %72, -1
  store i32 %73, ptr %69, align 4
  br label %76

74:                                               ; preds = %65
  %75 = atomicrmw volatile add ptr %69, i32 -1 acq_rel, align 4
  br label %76

76:                                               ; preds = %74, %71
  %.0.i.i.i.i.i.i.i = phi i32 [ %72, %71 ], [ %75, %74 ]
  %77 = icmp eq i32 %.0.i.i.i.i.i.i.i, 1
  br i1 %77, label %_ZNSt16_Sp_counted_baseILN9__gnu_cxx12_Lock_policyE2EE24_M_release_last_use_coldEv.exit.sink.split.i.i.i.i.i, label %_ZN32pxrInternal_v0_24__pxrReserved__8TsSplineD2Ev.exit

_ZNSt16_Sp_counted_baseILN9__gnu_cxx12_Lock_policyE2EE24_M_release_last_use_coldEv.exit.sink.split.i.i.i.i.i: ; preds = %76, %52
  %78 = load ptr, ptr %46, align 8
  %79 = getelementptr inbounds nuw i8, ptr %78, i64 24
  %80 = load ptr, ptr %79, align 8
  call void %80(ptr noundef nonnull align 8 dereferenceable(16) %46) #23
  br label %_ZN32pxrInternal_v0_24__pxrReserved__8TsSplineD2Ev.exit

_ZN32pxrInternal_v0_24__pxrReserved__8TsSplineD2Ev.exit: ; preds = %_ZNSt6vectorIN32pxrInternal_v0_24__pxrReserved__8TsSplineESaIS1_EE9push_backERKS1_.exit, %63, %76, %_ZNSt16_Sp_counted_baseILN9__gnu_cxx12_Lock_policyE2EE24_M_release_last_use_coldEv.exit.sink.split.i.i.i.i.i
  ret void

81:                                               ; preds = %44, %41
  %82 = landingpad { ptr, i32 }
          cleanup
  br label %88

83:                                               ; preds = %3
  %84 = landingpad { ptr, i32 }
          cleanup
  br label %87

85:                                               ; preds = %11
  %86 = landingpad { ptr, i32 }
          cleanup
  call void @_ZN32pxrInternal_v0_24__pxrReserved__10TsKeyFrameD1Ev(ptr noundef nonnull align 8 dereferenceable(72) %6) #23
  br label %87

87:                                               ; preds = %85, %83
  %.pn = phi { ptr, i32 } [ %86, %85 ], [ %84, %83 ]
  call void @_ZN32pxrInternal_v0_24__pxrReserved__7VtValueD2Ev(ptr noundef nonnull align 8 dereferenceable(16) %8) #23
  call void @_ZN32pxrInternal_v0_24__pxrReserved__7VtValueD2Ev(ptr noundef nonnull align 8 dereferenceable(16) %7) #23
  br label %88

88:                                               ; preds = %87, %81
  %.pn6 = phi { ptr, i32 } [ %82, %81 ], [ %.pn, %87 ]
  call void @_ZN32pxrInternal_v0_24__pxrReserved__8TsSplineD2Ev(ptr noundef nonnull align 8 dereferenceable(16) %5) #23
  resume { ptr, i32 } %.pn6
}